target datalayout = "e-m:e-p270:32:32-p271:32:32-p272:64:64-i64:64-i128:128-f80:128-n8:16:32:64-S128"
target triple = "x86_64-pc-linux-gnu"

%struct.__va_list_tag = type { i32, i32, ptr, ptr }

@verbose = internal global i32 0, align 4

; Function Attrs: nounwind uwtable
define internal void @loginfo(ptr noundef %0, ...) #0 {
  %2 = alloca ptr, align 8
  %3 = alloca [1 x %struct.__va_list_tag], align 16
  %4 = alloca i32, align 4
  store ptr %0, ptr %2, align 8, !tbaa !11
  call void @llvm.lifetime.start.p0(i64 24, ptr %3) #13
  %5 = load i32, ptr @verbose, align 4, !tbaa !4
  %6 = icmp ne i32 %5, 0
  br i1 %6, label %8, label %7

7:                                                ; preds = %1
  store i32 1, ptr %4, align 4
  br label %13

8:                                                ; preds = %1
  %9 = getelementptr inbounds [1 x %struct.__va_list_tag], ptr %3, i64 0, i64 0
  call void @llvm.va_start.p0(ptr %9)
  %10 = load ptr, ptr %2, align 8, !tbaa !11
  %11 = getelementptr inbounds [1 x %struct.__va_list_tag], ptr %3, i64 0, i64 0
  call void @logreport(i32 noundef 6, ptr noundef %10, ptr noundef %11)
  %12 = getelementptr inbounds [1 x %struct.__va_list_tag], ptr %3, i64 0, i64 0
  call void @llvm.va_end.p0(ptr %12)
  store i32 0, ptr %4, align 4
  br label %13

13:                                               ; preds = %8, %7
  call void @llvm.lifetime.end.p0(i64 24, ptr %3) #13
  %14 = load i32, ptr %4, align 4
  switch i32 %14, label %16 [
    i32 0, label %15
    i32 1, label %15
  ]

15:                                               ; preds = %13, %13
  ret void

16:                                               ; preds = %13
  unreachable
}