; Function Attrs: nounwind uwtable
define internal void @loginfo(ptr noundef readonly captures(none) %0, ...) unnamed_addr #0 {
  %2 = alloca [1 x %struct.__va_list_tag], align 16
  call void @llvm.lifetime.start.p0(i64 24, ptr nonnull %2) #21
  %.b = load i1, ptr @verbose, align 4
  br i1 %.b, label %3, label %4

3:                                                ; preds = %1
  call void @llvm.va_start.p0(ptr nonnull %2)
  call fastcc void @logreport(i32 noundef 6, ptr noundef %0, ptr noundef nonnull %2)
  call void @llvm.va_end.p0(ptr nonnull %2)
  br label %4

4:                                                ; preds = %1, %3
  call void @llvm.lifetime.end.p0(i64 24, ptr nonnull %2) #21
  ret void
}